target datalayout = "e-m:e-p270:32:32-p271:32:32-p272:64:64-i64:64-i128:128-f80:128-n8:16:32:64-S128"
target triple = "x86_64-pc-linux-gnu"

%struct.hwloc_memory_node_info_s = type { ptr, i64, i64, i64, i32 }

; Function Attrs: nounwind uwtable
define internal i32 @compare_node_infos_by_type_and_bw(ptr noundef %0, ptr noundef %1) #0 {
  %3 = alloca i32, align 4
  %4 = alloca ptr, align 8
  %5 = alloca ptr, align 8
  %6 = alloca ptr, align 8
  %7 = alloca ptr, align 8
  %8 = alloca i32, align 4
  store ptr %0, ptr %4, align 8, !tbaa !120
  store ptr %1, ptr %5, align 8, !tbaa !120
  call void @llvm.lifetime.start.p0(i64 8, ptr %6) #14
  %9 = load ptr, ptr %4, align 8, !tbaa !120
  store ptr %9, ptr %6, align 8, !tbaa !137
  call void @llvm.lifetime.start.p0(i64 8, ptr %7) #14
  %10 = load ptr, ptr %5, align 8, !tbaa !120
  store ptr %10, ptr %7, align 8, !tbaa !137
  %11 = load ptr, ptr %6, align 8, !tbaa !137
  %12 = getelementptr inbounds nuw %struct.hwloc_memory_node_info_s, ptr %11, i32 0, i32 3
  %13 = load i64, ptr %12, align 8, !tbaa !141
  %14 = load ptr, ptr %7, align 8, !tbaa !137
  %15 = getelementptr inbounds nuw %struct.hwloc_memory_node_info_s, ptr %14, i32 0, i32 3
  %16 = load i64, ptr %15, align 8, !tbaa !141
  %17 = icmp ne i64 %13, %16
  br i1 %17, label %18, label %27

18:                                               ; preds = %2
  %19 = load ptr, ptr %6, align 8, !tbaa !137
  %20 = getelementptr inbounds nuw %struct.hwloc_memory_node_info_s, ptr %19, i32 0, i32 3
  %21 = load i64, ptr %20, align 8, !tbaa !141
  %22 = load ptr, ptr %7, align 8, !tbaa !137
  %23 = getelementptr inbounds nuw %struct.hwloc_memory_node_info_s, ptr %22, i32 0, i32 3
  %24 = load i64, ptr %23, align 8, !tbaa !141
  %25 = sub i64 %21, %24
  %26 = trunc i64 %25 to i32
  store i32 %26, ptr %3, align 4
  store i32 1, ptr %8, align 4
  br label %47

27:                                               ; preds = %2
  %28 = load ptr, ptr %6, align 8, !tbaa !137
  %29 = getelementptr inbounds nuw %struct.hwloc_memory_node_info_s, ptr %28, i32 0, i32 1
  %30 = load i64, ptr %29, align 8, !tbaa !142
  %31 = load ptr, ptr %7, align 8, !tbaa !137
  %32 = getelementptr inbounds nuw %struct.hwloc_memory_node_info_s, ptr %31, i32 0, i32 1
  %33 = load i64, ptr %32, align 8, !tbaa !142
  %34 = icmp ugt i64 %30, %33
  br i1 %34, label %35, label %36

35:                                               ; preds = %27
  store i32 -1, ptr %3, align 4
  store i32 1, ptr %8, align 4
  br label %47

36:                                               ; preds = %27
  %37 = load ptr, ptr %6, align 8, !tbaa !137
  %38 = getelementptr inbounds nuw %struct.hwloc_memory_node_info_s, ptr %37, i32 0, i32 1
  %39 = load i64, ptr %38, align 8, !tbaa !142
  %40 = load ptr, ptr %7, align 8, !tbaa !137
  %41 = getelementptr inbounds nuw %struct.hwloc_memory_node_info_s, ptr %40, i32 0, i32 1
  %42 = load i64, ptr %41, align 8, !tbaa !142
  %43 = icmp ult i64 %39, %42
  br i1 %43, label %44, label %45

44:                                               ; preds = %36
  store i32 1, ptr %3, align 4
  store i32 1, ptr %8, align 4
  br label %47

45:                                               ; preds = %36
  br label %46

46:                                               ; preds = %45
  store i32 0, ptr %3, align 4
  store i32 1, ptr %8, align 4
  br label %47

47:                                               ; preds = %46, %44, %35, %18
  call void @llvm.lifetime.end.p0(i64 8, ptr %7) #14
  call void @llvm.lifetime.end.p0(i64 8, ptr %6) #14
  %48 = load i32, ptr %3, align 4
  ret i32 %48
}