; Function Attrs: mustprogress nofree norecurse nosync nounwind willreturn memory(argmem: read) uwtable
define internal i32 @compare_node_infos_by_type_and_bw(ptr noundef readonly captures(none) %0, ptr noundef readonly captures(none) %1) #20 {
  %3 = getelementptr inbounds nuw i8, ptr %0, i64 24
  %4 = load i64, ptr %3, align 8, !tbaa !123
  %5 = getelementptr inbounds nuw i8, ptr %1, i64 24
  %6 = load i64, ptr %5, align 8, !tbaa !123
  %.not = icmp eq i64 %4, %6
  br i1 %.not, label %10, label %7

7:                                                ; preds = %2
  %8 = sub i64 %4, %6
  %9 = trunc i64 %8 to i32
  br label %18

10:                                               ; preds = %2
  %11 = getelementptr inbounds nuw i8, ptr %0, i64 8
  %12 = load i64, ptr %11, align 8, !tbaa !125
  %13 = getelementptr inbounds nuw i8, ptr %1, i64 8
  %14 = load i64, ptr %13, align 8, !tbaa !125
  %15 = icmp ugt i64 %12, %14
  br i1 %15, label %18, label %16

16:                                               ; preds = %10
  %17 = icmp ult i64 %12, %14
  %. = zext i1 %17 to i32
  br label %18

18:                                               ; preds = %16, %10, %7
  %.0 = phi i32 [ %9, %7 ], [ -1, %10 ], [ %., %16 ]
  ret i32 %.0
}